target datalayout = "e-m:e-p270:32:32-p271:32:32-p272:64:64-i64:64-i128:128-f80:128-n8:16:32:64-S128"
target triple = "x86_64-pc-linux-gnu"

%struct.Fra_Sml_t_ = type { ptr, i32, i32, i32, i32, i32, i32, i32, i32, [0 x i32] }

; Function Attrs: inlinehint nounwind uwtable
define internal i32 @lit_sign(i32 noundef %0) #2 {
  %2 = alloca i32, align 4
  store i32 %0, ptr %2, align 4, !tbaa !21
  %3 = load i32, ptr %2, align 4, !tbaa !21
  %4 = and i32 %3, 1
  ret i32 %4
}

; Function Attrs: inlinehint nounwind uwtable
define internal ptr @Fra_ObjSim(ptr noundef %0, i32 noundef %1) #2 {
  %3 = alloca ptr, align 8
  %4 = alloca i32, align 4
  store ptr %0, ptr %3, align 8, !tbaa !48
  store i32 %1, ptr %4, align 4, !tbaa !21
  %5 = load ptr, ptr %3, align 8, !tbaa !48
  %6 = getelementptr inbounds nuw %struct.Fra_Sml_t_, ptr %5, i32 0, i32 9
  %7 = getelementptr inbounds [0 x i32], ptr %6, i64 0, i64 0
  %8 = load ptr, ptr %3, align 8, !tbaa !48
  %9 = getelementptr inbounds nuw %struct.Fra_Sml_t_, ptr %8, i32 0, i32 4
  %10 = load i32, ptr %9, align 4, !tbaa !52
  %11 = load i32, ptr %4, align 4, !tbaa !21
  %12 = mul nsw i32 %10, %11
  %13 = sext i32 %12 to i64
  %14 = getelementptr inbounds i32, ptr %7, i64 %13
  ret ptr %14
}

; Function Attrs: inlinehint nounwind uwtable
define internal i32 @lit_var(i32 noundef %0) #2 {
  %2 = alloca i32, align 4
  store i32 %0, ptr %2, align 4, !tbaa !21
  %3 = load i32, ptr %2, align 4, !tbaa !21
  %4 = ashr i32 %3, 1
  ret i32 %4
}

; Function Attrs: nounwind uwtable
define void @Fra_ClausEstimateCoverageOne(ptr noundef %0, ptr noundef %1, i32 noundef %2, ptr noundef %3, ptr noundef %4) #0 {
  %6 = alloca ptr, align 8
  %7 = alloca ptr, align 8
  %8 = alloca i32, align 4
  %9 = alloca ptr, align 8
  %10 = alloca ptr, align 8
  %11 = alloca [16 x ptr], align 16
  %12 = alloca i32, align 4
  %13 = alloca i32, align 4
  %14 = alloca i32, align 4
  store ptr %0, ptr %6, align 8, !tbaa !48
  store ptr %1, ptr %7, align 8, !tbaa !42
  store i32 %2, ptr %8, align 4, !tbaa !21
  store ptr %3, ptr %9, align 8, !tbaa !42
  store ptr %4, ptr %10, align 8, !tbaa !42
  call void @llvm.lifetime.start.p0(i64 128, ptr %11) #11
  call void @llvm.lifetime.start.p0(i64 4, ptr %12) #11
  call void @llvm.lifetime.start.p0(i64 4, ptr %13) #11
  call void @llvm.lifetime.start.p0(i64 4, ptr %14) #11
  store i32 0, ptr %13, align 4, !tbaa !21
  br label %15

15:                                               ; preds = %36, %5
  %16 = load i32, ptr %13, align 4, !tbaa !21
  %17 = load i32, ptr %8, align 4, !tbaa !21
  %18 = icmp slt i32 %16, %17
  br i1 %18, label %19, label %39

19:                                               ; preds = %15
  %20 = load ptr, ptr %7, align 8, !tbaa !42
  %21 = load i32, ptr %13, align 4, !tbaa !21
  %22 = sext i32 %21 to i64
  %23 = getelementptr inbounds i32, ptr %20, i64 %22
  %24 = load i32, ptr %23, align 4, !tbaa !21
  %25 = call i32 @lit_var(i32 noundef %24)
  store i32 %25, ptr %12, align 4, !tbaa !21
  %26 = load ptr, ptr %6, align 8, !tbaa !48
  %27 = load ptr, ptr %9, align 8, !tbaa !42
  %28 = load i32, ptr %12, align 4, !tbaa !21
  %29 = sext i32 %28 to i64
  %30 = getelementptr inbounds i32, ptr %27, i64 %29
  %31 = load i32, ptr %30, align 4, !tbaa !21
  %32 = call ptr @Fra_ObjSim(ptr noundef %26, i32 noundef %31)
  %33 = load i32, ptr %13, align 4, !tbaa !21
  %34 = sext i32 %33 to i64
  %35 = getelementptr inbounds [16 x ptr], ptr %11, i64 0, i64 %34
  store ptr %32, ptr %35, align 8, !tbaa !42
  br label %36

36:                                               ; preds = %19
  %37 = load i32, ptr %13, align 4, !tbaa !21
  %38 = add nsw i32 %37, 1
  store i32 %38, ptr %13, align 4, !tbaa !21
  br label %15, !llvm.loop !204

39:                                               ; preds = %15
  store i32 0, ptr %14, align 4, !tbaa !21
  br label %40

40:                                               ; preds = %94, %39
  %41 = load i32, ptr %14, align 4, !tbaa !21
  %42 = load ptr, ptr %6, align 8, !tbaa !48
  %43 = getelementptr inbounds nuw %struct.Fra_Sml_t_, ptr %42, i32 0, i32 4
  %44 = load i32, ptr %43, align 4, !tbaa !52
  %45 = icmp slt i32 %41, %44
  br i1 %45, label %46, label %97

46:                                               ; preds = %40
  %47 = load ptr, ptr %10, align 8, !tbaa !42
  %48 = load i32, ptr %14, align 4, !tbaa !21
  %49 = sext i32 %48 to i64
  %50 = getelementptr inbounds i32, ptr %47, i64 %49
  store i32 -1, ptr %50, align 4, !tbaa !21
  store i32 0, ptr %13, align 4, !tbaa !21
  br label %51

51:                                               ; preds = %90, %46
  %52 = load i32, ptr %13, align 4, !tbaa !21
  %53 = load i32, ptr %8, align 4, !tbaa !21
  %54 = icmp slt i32 %52, %53
  br i1 %54, label %55, label %93

55:                                               ; preds = %51
  %56 = load ptr, ptr %7, align 8, !tbaa !42
  %57 = load i32, ptr %13, align 4, !tbaa !21
  %58 = sext i32 %57 to i64
  %59 = getelementptr inbounds i32, ptr %56, i64 %58
  %60 = load i32, ptr %59, align 4, !tbaa !21
  %61 = call i32 @lit_sign(i32 noundef %60)
  %62 = icmp ne i32 %61, 0
  br i1 %62, label %63, label %72

63:                                               ; preds = %55
  %64 = load i32, ptr %13, align 4, !tbaa !21
  %65 = sext i32 %64 to i64
  %66 = getelementptr inbounds [16 x ptr], ptr %11, i64 0, i64 %65
  %67 = load ptr, ptr %66, align 8, !tbaa !42
  %68 = load i32, ptr %14, align 4, !tbaa !21
  %69 = sext i32 %68 to i64
  %70 = getelementptr inbounds i32, ptr %67, i64 %69
  %71 = load i32, ptr %70, align 4, !tbaa !21
  br label %82

72:                                               ; preds = %55
  %73 = load i32, ptr %13, align 4, !tbaa !21
  %74 = sext i32 %73 to i64
  %75 = getelementptr inbounds [16 x ptr], ptr %11, i64 0, i64 %74
  %76 = load ptr, ptr %75, align 8, !tbaa !42
  %77 = load i32, ptr %14, align 4, !tbaa !21
  %78 = sext i32 %77 to i64
  %79 = getelementptr inbounds i32, ptr %76, i64 %78
  %80 = load i32, ptr %79, align 4, !tbaa !21
  %81 = xor i32 %80, -1
  br label %82

82:                                               ; preds = %72, %63
  %83 = phi i32 [ %71, %63 ], [ %81, %72 ]
  %84 = load ptr, ptr %10, align 8, !tbaa !42
  %85 = load i32, ptr %14, align 4, !tbaa !21
  %86 = sext i32 %85 to i64
  %87 = getelementptr inbounds i32, ptr %84, i64 %86
  %88 = load i32, ptr %87, align 4, !tbaa !21
  %89 = and i32 %88, %83
  store i32 %89, ptr %87, align 4, !tbaa !21
  br label %90

90:                                               ; preds = %82
  %91 = load i32, ptr %13, align 4, !tbaa !21
  %92 = add nsw i32 %91, 1
  store i32 %92, ptr %13, align 4, !tbaa !21
  br label %51, !llvm.loop !205

93:                                               ; preds = %51
  br label %94

94:                                               ; preds = %93
  %95 = load i32, ptr %14, align 4, !tbaa !21
  %96 = add nsw i32 %95, 1
  store i32 %96, ptr %14, align 4, !tbaa !21
  br label %40, !llvm.loop !206

97:                                               ; preds = %40
  call void @llvm.lifetime.end.p0(i64 4, ptr %14) #11
  call void @llvm.lifetime.end.p0(i64 4, ptr %13) #11
  call void @llvm.lifetime.end.p0(i64 4, ptr %12) #11
  call void @llvm.lifetime.end.p0(i64 128, ptr %11) #11
  ret void
}