; Function Attrs: nofree norecurse nosync nounwind memory(read, argmem: readwrite, inaccessiblemem: none) uwtable
define void @Fra_ClausEstimateCoverageOne(ptr noundef %0, ptr noundef readonly captures(none) %1, i32 noundef %2, ptr noundef readonly captures(none) %3, ptr noundef writeonly captures(none) %4) local_unnamed_addr #6 {
  %6 = alloca [16 x ptr], align 16
  call void @llvm.lifetime.start.p0(i64 128, ptr nonnull %6) #23
  %7 = icmp sgt i32 %2, 0
  br i1 %7, label %.lr.ph, label %.preheader.thread

.lr.ph:                                           ; preds = %5
  %8 = getelementptr inbounds nuw i8, ptr %0, i64 40
  %9 = getelementptr inbounds nuw i8, ptr %0, i64 20
  %10 = load i32, ptr %9, align 4, !tbaa !45
  %wide.trip.count = zext nneg i32 %2 to i64
  br label %30

.preheader:                                       ; preds = %30
  %11 = getelementptr inbounds nuw i8, ptr %0, i64 20
  %12 = icmp sgt i32 %10, 0
  br i1 %12, label %.lr.ph28.us.preheader, label %._crit_edge31

.preheader.thread:                                ; preds = %5
  %.phi.trans.insert = getelementptr inbounds nuw i8, ptr %0, i64 20
  %.pre = load i32, ptr %.phi.trans.insert, align 4, !tbaa !45
  %13 = getelementptr inbounds nuw i8, ptr %0, i64 20
  %14 = icmp sgt i32 %.pre, 0
  br i1 %14, label %.lr.ph30.split, label %._crit_edge31

.lr.ph28.us.preheader:                            ; preds = %.preheader
  %wide.trip.count40 = zext nneg i32 %2 to i64
  br label %.lr.ph28.us

.lr.ph28.us:                                      ; preds = %.lr.ph28.us.preheader, %._crit_edge.us
  %indvars.iv42 = phi i64 [ 0, %.lr.ph28.us.preheader ], [ %indvars.iv.next43, %._crit_edge.us ]
  %15 = getelementptr inbounds nuw i32, ptr %4, i64 %indvars.iv42
  store i32 -1, ptr %15, align 4, !tbaa !38
  br label %16

16:                                               ; preds = %.lr.ph28.us, %16
  %indvars.iv37 = phi i64 [ 0, %.lr.ph28.us ], [ %indvars.iv.next38, %16 ]
  %17 = phi i32 [ -1, %.lr.ph28.us ], [ %26, %16 ]
  %18 = getelementptr inbounds nuw i32, ptr %1, i64 %indvars.iv37
  %19 = load i32, ptr %18, align 4, !tbaa !38
  %20 = and i32 %19, 1
  %21 = getelementptr inbounds nuw [16 x ptr], ptr %6, i64 0, i64 %indvars.iv37
  %22 = load ptr, ptr %21, align 8, !tbaa !48
  %23 = getelementptr inbounds nuw i32, ptr %22, i64 %indvars.iv42
  %24 = load i32, ptr %23, align 4, !tbaa !38
  %sext = add nsw i32 %20, -1
  %25 = xor i32 %24, %sext
  %26 = and i32 %17, %25
  store i32 %26, ptr %15, align 4, !tbaa !38
  %indvars.iv.next38 = add nuw nsw i64 %indvars.iv37, 1
  %exitcond41.not = icmp eq i64 %indvars.iv.next38, %wide.trip.count40
  br i1 %exitcond41.not, label %._crit_edge.us, label %16, !llvm.loop !197

._crit_edge.us:                                   ; preds = %16
  %indvars.iv.next43 = add nuw nsw i64 %indvars.iv42, 1
  %27 = load i32, ptr %11, align 4, !tbaa !45
  %28 = sext i32 %27 to i64
  %29 = icmp slt i64 %indvars.iv.next43, %28
  br i1 %29, label %.lr.ph28.us, label %._crit_edge31, !llvm.loop !198

30:                                               ; preds = %.lr.ph, %30
  %indvars.iv = phi i64 [ 0, %.lr.ph ], [ %indvars.iv.next, %30 ]
  %31 = getelementptr inbounds nuw i32, ptr %1, i64 %indvars.iv
  %32 = load i32, ptr %31, align 4, !tbaa !38
  %33 = ashr i32 %32, 1
  %34 = sext i32 %33 to i64
  %35 = getelementptr inbounds i32, ptr %3, i64 %34
  %36 = load i32, ptr %35, align 4, !tbaa !38
  %37 = mul nsw i32 %10, %36
  %38 = sext i32 %37 to i64
  %39 = getelementptr inbounds i32, ptr %8, i64 %38
  %40 = getelementptr inbounds nuw [16 x ptr], ptr %6, i64 0, i64 %indvars.iv
  store ptr %39, ptr %40, align 8, !tbaa !48
  %indvars.iv.next = add nuw nsw i64 %indvars.iv, 1
  %exitcond.not = icmp eq i64 %indvars.iv.next, %wide.trip.count
  br i1 %exitcond.not, label %.preheader, label %30, !llvm.loop !199

.lr.ph30.split:                                   ; preds = %.preheader.thread, %.lr.ph30.split
  %indvars.iv34 = phi i64 [ %indvars.iv.next35, %.lr.ph30.split ], [ 0, %.preheader.thread ]
  %41 = getelementptr inbounds nuw i32, ptr %4, i64 %indvars.iv34
  store i32 -1, ptr %41, align 4, !tbaa !38
  %indvars.iv.next35 = add nuw nsw i64 %indvars.iv34, 1
  %42 = load i32, ptr %13, align 4, !tbaa !45
  %43 = sext i32 %42 to i64
  %44 = icmp slt i64 %indvars.iv.next35, %43
  br i1 %44, label %.lr.ph30.split, label %._crit_edge31, !llvm.loop !198

._crit_edge31:                                    ; preds = %.lr.ph30.split, %._crit_edge.us, %.preheader.thread, %.preheader
  call void @llvm.lifetime.end.p0(i64 128, ptr nonnull %6) #23
  ret void
}